target datalayout = "e-m:e-p270:32:32-p271:32:32-p272:64:64-i64:64-i128:128-f80:128-n8:16:32:64-S128"
target triple = "x86_64-pc-linux-gnu"

%struct._oid_info_t = type { i32, ptr, i32, ptr, ptr, i32, ptr, ptr, ptr }

@oid_root = internal global { i32, [4 x i8], ptr, i32, [4 x i8], ptr, ptr, i32, [4 x i8], ptr, ptr, ptr } { i32 0, [4 x i8] zeroinitializer, ptr null, i32 0, [4 x i8] zeroinitializer, ptr null, ptr @unknown_type, i32 -2, [4 x i8] zeroinitializer, ptr null, ptr null, ptr null }, align 8

; Function Attrs: null_pointer_is_valid sspstrong uwtable
define ptr @oid_get(i32 noundef %0, ptr noundef %1, ptr noundef %2, ptr noundef %3) #0 {
  %5 = alloca ptr, align 8
  %6 = alloca i32, align 4
  %7 = alloca ptr, align 8
  %8 = alloca ptr, align 8
  %9 = alloca ptr, align 8
  %10 = alloca ptr, align 8
  %11 = alloca i32, align 4
  %12 = alloca i32, align 4
  %13 = alloca ptr, align 8
  store i32 %0, ptr %6, align 4
  store ptr %1, ptr %7, align 8
  store ptr %2, ptr %8, align 8
  store ptr %3, ptr %9, align 8
  call void @llvm.lifetime.start.p0(i64 8, ptr %10) #6
  store ptr @oid_root, ptr %10, align 8
  call void @llvm.lifetime.start.p0(i64 4, ptr %11) #6
  %14 = load ptr, ptr %7, align 8
  %15 = icmp ne ptr %14, null
  br i1 %15, label %16, label %20

16:                                               ; preds = %4
  %17 = load ptr, ptr %7, align 8
  %18 = load i32, ptr %17, align 4
  %19 = icmp ule i32 %18, 2
  br i1 %19, label %25, label %20

20:                                               ; preds = %16, %4
  %21 = load ptr, ptr %8, align 8
  store i32 0, ptr %21, align 4
  %22 = load i32, ptr %6, align 4
  %23 = load ptr, ptr %9, align 8
  store i32 %22, ptr %23, align 4
  %24 = load ptr, ptr %10, align 8
  store ptr %24, ptr %5, align 8
  store i32 1, ptr %12, align 4
  br label %61

25:                                               ; preds = %16
  store i32 0, ptr %11, align 4
  br label %26

26:                                               ; preds = %49, %25
  %27 = load i32, ptr %11, align 4
  %28 = load i32, ptr %6, align 4
  %29 = icmp ult i32 %27, %28
  br i1 %29, label %30, label %52

30:                                               ; preds = %26
  call void @llvm.lifetime.start.p0(i64 8, ptr %13) #6
  %31 = load ptr, ptr %10, align 8
  %32 = getelementptr inbounds nuw %struct._oid_info_t, ptr %31, i32 0, i32 3
  %33 = load ptr, ptr %32, align 8
  %34 = load ptr, ptr %7, align 8
  %35 = load i32, ptr %11, align 4
  %36 = zext i32 %35 to i64
  %37 = getelementptr i32, ptr %34, i64 %36
  %38 = load i32, ptr %37, align 4
  %39 = call ptr @wmem_tree_lookup32(ptr noundef %33, i32 noundef %38)
  store ptr %39, ptr %13, align 8
  %40 = load ptr, ptr %13, align 8
  %41 = icmp ne ptr %40, null
  br i1 %41, label %42, label %44

42:                                               ; preds = %30
  %43 = load ptr, ptr %13, align 8
  store ptr %43, ptr %10, align 8
  br label %45

44:                                               ; preds = %30
  store i32 5, ptr %12, align 4
  br label %46

45:                                               ; preds = %42
  store i32 0, ptr %12, align 4
  br label %46

46:                                               ; preds = %44, %45
  call void @llvm.lifetime.end.p0(i64 8, ptr %13) #6
  %47 = load i32, ptr %12, align 4
  switch i32 %47, label %61 [
    i32 0, label %48
    i32 5, label %53
  ]

48:                                               ; preds = %46
  br label %49

49:                                               ; preds = %48
  %50 = load i32, ptr %11, align 4
  %51 = add i32 %50, 1
  store i32 %51, ptr %11, align 4
  br label %26, !llvm.loop !15

52:                                               ; preds = %26
  br label %53

53:                                               ; preds = %52, %46
  %54 = load i32, ptr %11, align 4
  %55 = load ptr, ptr %8, align 8
  store i32 %54, ptr %55, align 4
  %56 = load i32, ptr %6, align 4
  %57 = load i32, ptr %11, align 4
  %58 = sub i32 %56, %57
  %59 = load ptr, ptr %9, align 8
  store i32 %58, ptr %59, align 4
  %60 = load ptr, ptr %10, align 8
  store ptr %60, ptr %5, align 8
  store i32 1, ptr %12, align 4
  br label %61

61:                                               ; preds = %53, %46, %20
  call void @llvm.lifetime.end.p0(i64 4, ptr %11) #6
  call void @llvm.lifetime.end.p0(i64 8, ptr %10) #6
  %62 = load ptr, ptr %5, align 8
  ret ptr %62
}

; Function Attrs: null_pointer_is_valid sspstrong uwtable
define ptr @oid_get_from_string(ptr noundef %0, ptr noundef %1, ptr noundef %2, ptr noundef %3, ptr noundef %4) #0 {
  %6 = alloca ptr, align 8
  %7 = alloca ptr, align 8
  %8 = alloca ptr, align 8
  %9 = alloca ptr, align 8
  %10 = alloca ptr, align 8
  %11 = alloca i32, align 4
  store ptr %0, ptr %6, align 8
  store ptr %1, ptr %7, align 8
  store ptr %2, ptr %8, align 8
  store ptr %3, ptr %9, align 8
  store ptr %4, ptr %10, align 8
  call void @llvm.lifetime.start.p0(i64 4, ptr %11) #6
  %12 = load ptr, ptr %6, align 8
  %13 = load ptr, ptr %7, align 8
  %14 = load ptr, ptr %8, align 8
  %15 = call i32 @oid_string2subid(ptr noundef %12, ptr noundef %13, ptr noundef %14)
  store i32 %15, ptr %11, align 4
  %16 = load i32, ptr %11, align 4
  %17 = load ptr, ptr %8, align 8
  %18 = load ptr, ptr %17, align 8
  %19 = load ptr, ptr %9, align 8
  %20 = load ptr, ptr %10, align 8
  %21 = call ptr @oid_get(i32 noundef %16, ptr noundef %18, ptr noundef %19, ptr noundef %20)
  call void @llvm.lifetime.end.p0(i64 4, ptr %11) #6
  ret ptr %21
}