; Function Attrs: null_pointer_is_valid sspstrong uwtable
define ptr @oid_get_from_string(ptr noundef %0, ptr noundef %1, ptr noundef captures(none) %2, ptr noundef writeonly captures(none) %3, ptr noundef writeonly captures(none) %4) local_unnamed_addr #0 {
  %6 = tail call i32 @oid_string2subid(ptr noundef %0, ptr noundef %1, ptr noundef %2)
  %7 = load ptr, ptr %2, align 8
  %.not.i = icmp eq ptr %7, null
  br i1 %.not.i, label %11, label %8

8:                                                ; preds = %5
  %9 = load i32, ptr %7, align 4
  %10 = icmp ult i32 %9, 3
  br i1 %10, label %.preheader.i, label %11

.preheader.i:                                     ; preds = %8
  %.not33.i = icmp eq i32 %6, 0
  br i1 %.not33.i, label %._crit_edge.i, label %.lr.ph.preheader.i

.lr.ph.preheader.i:                               ; preds = %.preheader.i
  %wide.trip.count.i = zext i32 %6 to i64
  br label %.lr.ph.i

11:                                               ; preds = %8, %5
  store i32 0, ptr %3, align 4
  br label %oid_get.exit

.lr.ph.i:                                         ; preds = %17, %.lr.ph.preheader.i
  %indvars.iv.i = phi i64 [ 0, %.lr.ph.preheader.i ], [ %indvars.iv.next.i, %17 ]
  %.02327.i = phi ptr [ @oid_root, %.lr.ph.preheader.i ], [ %16, %17 ]
  %12 = getelementptr inbounds nuw i8, ptr %.02327.i, i64 24
  %13 = load ptr, ptr %12, align 8
  %14 = getelementptr i32, ptr %7, i64 %indvars.iv.i
  %15 = load i32, ptr %14, align 4
  %16 = tail call ptr @wmem_tree_lookup32(ptr noundef %13, i32 noundef %15)
  %.not26.i = icmp eq ptr %16, null
  br i1 %.not26.i, label %._crit_edge.loopexit.split.loop.exit.i, label %17

17:                                               ; preds = %.lr.ph.i
  %indvars.iv.next.i = add nuw nsw i64 %indvars.iv.i, 1
  %exitcond.not.i = icmp eq i64 %indvars.iv.next.i, %wide.trip.count.i
  br i1 %exitcond.not.i, label %._crit_edge.i, label %.lr.ph.i, !llvm.loop !15

._crit_edge.loopexit.split.loop.exit.i:           ; preds = %.lr.ph.i
  %18 = trunc nuw i64 %indvars.iv.i to i32
  br label %._crit_edge.i

._crit_edge.i:                                    ; preds = %17, %._crit_edge.loopexit.split.loop.exit.i, %.preheader.i
  %.023.lcssa.i = phi ptr [ @oid_root, %.preheader.i ], [ %.02327.i, %._crit_edge.loopexit.split.loop.exit.i ], [ %16, %17 ]
  %.022.lcssa.i = phi i32 [ 0, %.preheader.i ], [ %18, %._crit_edge.loopexit.split.loop.exit.i ], [ %6, %17 ]
  store i32 %.022.lcssa.i, ptr %3, align 4
  %19 = sub i32 %6, %.022.lcssa.i
  br label %oid_get.exit

oid_get.exit:                                     ; preds = %11, %._crit_edge.i
  %storemerge.i = phi i32 [ %19, %._crit_edge.i ], [ %6, %11 ]
  %.0.i = phi ptr [ %.023.lcssa.i, %._crit_edge.i ], [ @oid_root, %11 ]
  store i32 %storemerge.i, ptr %4, align 4
  ret ptr %.0.i
}